(dp0
S'A'
p1
I12
sS'MONEY'
p2
I4
sS'PERCENT'
p3
I7
sS'O'
p4
I8
sS'[CLS]'
p5
I10
sS'PERSON'
p6
I3
sS'[SEP]'
p7
I11
sS'LOCATION'
p8
I2
sS'X'
p9
I9
sS'TIME'
p10
I6
sS'DATE'
p11
I5
sS'ORGANIZATION'
p12
I1
sS'[PAD]'
p13
I0
s.